#include <math.h>
#include <stdio.h>
#include <stdlib.h>
#include <string.h>

int main()
{
    char s[50],w[50];
    int i,k;
    scanf("%s%s",s,w);
    for(k=0;w[k]!='\0';k++)
    { 
        
              for(i=0;s[i]!='\0';i++)
              {
                   if(s[i]!=w[k+i])
                   {
                        break;
                   }
              }
              if(s[i]==0)
              {
                   printf("%d",k);
                   break;
              }
         
    }
    return 0;
}
