; ModuleID = 'source-C-CXX/44/2222.c'
source_filename = "source-C-CXX/44/2222.c"
target datalayout = "e-m:e-p270:32:32-p271:32:32-p272:64:64-i64:64-f80:128-n8:16:32:64-S128"
target triple = "x86_64-pc-linux-gnu"

@.str = private unnamed_addr constant [5 x i8] c"%s%s\00", align 1
@.str.1 = private unnamed_addr constant [3 x i8] c"%d\00", align 1

; Function Attrs: nofree nounwind sspstrong uwtable
define dso_local i32 @main() local_unnamed_addr #0 {
  %1 = alloca [50 x i8], align 16
  %2 = alloca [50 x i8], align 16
  %3 = getelementptr inbounds [50 x i8], [50 x i8]* %1, i64 0, i64 0
  call void @llvm.lifetime.start.p0i8(i64 50, i8* nonnull %3) #3
  %4 = getelementptr inbounds [50 x i8], [50 x i8]* %2, i64 0, i64 0
  call void @llvm.lifetime.start.p0i8(i64 50, i8* nonnull %4) #3
  %5 = call i32 (i8*, ...) @__isoc99_scanf(i8* getelementptr inbounds ([5 x i8], [5 x i8]* @.str, i64 0, i64 0), i8* nonnull %3, i8* nonnull %4)
  %6 = load i8, i8* %3, align 16
  %7 = load i8, i8* %4, align 16, !tbaa !5
  %8 = icmp eq i8 %7, 0
  br i1 %8, label %35, label %9

9:                                                ; preds = %0
  %10 = icmp eq i8 %6, 0
  br i1 %10, label %27, label %11

11:                                               ; preds = %9, %30
  %12 = phi i64 [ %31, %30 ], [ 0, %9 ]
  br label %17

13:                                               ; preds = %17
  %14 = getelementptr inbounds [50 x i8], [50 x i8]* %1, i64 0, i64 %24
  %15 = load i8, i8* %14, align 1, !tbaa !5
  %16 = icmp eq i8 %15, 0
  br i1 %16, label %25, label %17, !llvm.loop !8

17:                                               ; preds = %11, %13
  %18 = phi i64 [ 0, %11 ], [ %24, %13 ]
  %19 = phi i8 [ %6, %11 ], [ %15, %13 ]
  %20 = add nuw nsw i64 %18, %12
  %21 = getelementptr inbounds [50 x i8], [50 x i8]* %2, i64 0, i64 %20
  %22 = load i8, i8* %21, align 1, !tbaa !5
  %23 = icmp eq i8 %19, %22
  %24 = add nuw i64 %18, 1
  br i1 %23, label %13, label %30

25:                                               ; preds = %13
  %26 = trunc i64 %12 to i32
  br label %27

27:                                               ; preds = %25, %9
  %28 = phi i32 [ 0, %9 ], [ %26, %25 ]
  %29 = call i32 (i8*, ...) @printf(i8* nonnull dereferenceable(1) getelementptr inbounds ([3 x i8], [3 x i8]* @.str.1, i64 0, i64 0), i32 %28)
  br label %35

30:                                               ; preds = %17
  %31 = add nuw i64 %12, 1
  %32 = getelementptr inbounds [50 x i8], [50 x i8]* %2, i64 0, i64 %31
  %33 = load i8, i8* %32, align 1, !tbaa !5
  %34 = icmp eq i8 %33, 0
  br i1 %34, label %35, label %11, !llvm.loop !10

35:                                               ; preds = %30, %0, %27
  call void @llvm.lifetime.end.p0i8(i64 50, i8* nonnull %4) #3
  call void @llvm.lifetime.end.p0i8(i64 50, i8* nonnull %3) #3
  ret i32 0
}

; Function Attrs: argmemonly mustprogress nofree nosync nounwind willreturn
declare void @llvm.lifetime.start.p0i8(i64 immarg, i8* nocapture) #1

; Function Attrs: nofree nounwind
declare noundef i32 @__isoc99_scanf(i8* nocapture noundef readonly, ...) local_unnamed_addr #2

; Function Attrs: nofree nounwind
declare noundef i32 @printf(i8* nocapture noundef readonly, ...) local_unnamed_addr #2

; Function Attrs: argmemonly mustprogress nofree nosync nounwind willreturn
declare void @llvm.lifetime.end.p0i8(i64 immarg, i8* nocapture) #1


!llvm.module.flags = !{!0, !1, !2, !3}
!llvm.ident = !{!4}

!0 = !{i32 1, !"wchar_size", i32 4}
!1 = !{i32 7, !"PIC Level", i32 2}
!2 = !{i32 7, !"PIE Level", i32 2}
!3 = !{i32 7, !"uwtable", i32 1}
!4 = !{!"clang version 13.0.0"}
!5 = !{!6, !6, i64 0}
!6 = !{!"omnipotent char", !7, i64 0}
!7 = !{!"Simple C/C++ TBAA"}
!8 = distinct !{!8, !9}
!9 = !{!"llvm.loop.mustprogress"}
!10 = distinct !{!10, !9}
